target datalayout = "e-m:e-p270:32:32-p271:32:32-p272:64:64-i64:64-i128:128-f80:128-n8:16:32:64-S128"
target triple = "x86_64-pc-linux-gnu"

%struct.GISTSearchItem = type { %struct.pairingheap_node, i32, %union.anon, [0 x %struct.IndexOrderByDistance] }
%struct.pairingheap_node = type { ptr, ptr, ptr }
%union.anon = type { %struct.GISTSearchHeapItem }
%struct.GISTSearchHeapItem = type { %struct.ItemPointerData, i8, i8, ptr, i16 }
%struct.ItemPointerData = type { %struct.BlockIdData, i16 }
%struct.BlockIdData = type { i16, i16 }
%struct.IndexOrderByDistance = type { double, i8 }
%struct.IndexScanDescData = type { ptr, ptr, ptr, i32, i32, ptr, ptr, i8, i8, i8, i8, i8, ptr, ptr, ptr, ptr, ptr, %struct.ItemPointerData, i8, ptr, i8, ptr, ptr, i8, ptr }
%struct.GISTScanOpaqueData = type { ptr, ptr, ptr, ptr, i8, i8, ptr, ptr, i32, i32, i64, [1024 x %struct.GISTSearchHeapItem], i16, i16, ptr }
%struct.RelationData = type { %struct.RelFileLocator, ptr, i32, i32, i8, i8, i8, i8, i8, i32, i32, i32, i32, ptr, ptr, i32, %struct.LockInfoData, ptr, ptr, ptr, ptr, ptr, i8, ptr, ptr, ptr, ptr, ptr, ptr, i32, ptr, i8, ptr, ptr, i32, i8, i32, ptr, i8, ptr, ptr, ptr, ptr, ptr, ptr, ptr, i32, ptr, ptr, ptr, ptr, ptr, ptr, ptr, ptr, ptr, ptr, ptr, ptr, ptr, ptr, ptr, ptr, ptr, ptr, ptr, i32, i8, ptr }
%struct.RelFileLocator = type { i32, i32, i32 }
%struct.LockInfoData = type { %struct.LockRelId }
%struct.LockRelId = type { i32, i32 }
%struct.PgStat_TableStatus = type { i32, i8, ptr, %struct.PgStat_TableCounts, ptr }
%struct.PgStat_TableCounts = type { i64, i64, i64, i64, i64, i64, i64, i64, i8, i64, i64, i64, i64, i64 }
%struct.pairingheap = type { ptr, ptr, ptr }

@InterruptPending = external global i32, align 4

; Function Attrs: nounwind uwtable
define internal ptr @getNextGISTSearchItem(ptr noundef %0) #0 {
  %2 = alloca ptr, align 8
  %3 = alloca ptr, align 8
  store ptr %0, ptr %2, align 8
  call void @llvm.lifetime.start.p0(i64 8, ptr %3) #8
  %4 = load ptr, ptr %2, align 8
  %5 = getelementptr inbounds nuw %struct.GISTScanOpaqueData, ptr %4, i32 0, i32 2
  %6 = load ptr, ptr %5, align 8
  %7 = getelementptr inbounds nuw %struct.pairingheap, ptr %6, i32 0, i32 2
  %8 = load ptr, ptr %7, align 8
  %9 = icmp eq ptr %8, null
  br i1 %9, label %15, label %10

10:                                               ; preds = %1
  %11 = load ptr, ptr %2, align 8
  %12 = getelementptr inbounds nuw %struct.GISTScanOpaqueData, ptr %11, i32 0, i32 2
  %13 = load ptr, ptr %12, align 8
  %14 = call ptr @pairingheap_remove_first(ptr noundef %13)
  store ptr %14, ptr %3, align 8
  br label %16

15:                                               ; preds = %1
  store ptr null, ptr %3, align 8
  br label %16

16:                                               ; preds = %15, %10
  %17 = load ptr, ptr %3, align 8
  call void @llvm.lifetime.end.p0(i64 8, ptr %3) #8
  ret ptr %17
}

; Function Attrs: nounwind uwtable
define dso_local i64 @gistgetbitmap(ptr noundef %0, ptr noundef %1) #0 {
  %3 = alloca i64, align 8
  %4 = alloca ptr, align 8
  %5 = alloca ptr, align 8
  %6 = alloca ptr, align 8
  %7 = alloca i64, align 8
  %8 = alloca %struct.GISTSearchItem, align 8
  %9 = alloca i32, align 4
  %10 = alloca ptr, align 8
  store ptr %0, ptr %4, align 8
  store ptr %1, ptr %5, align 8
  call void @llvm.lifetime.start.p0(i64 8, ptr %6) #8
  %11 = load ptr, ptr %4, align 8
  %12 = getelementptr inbounds nuw %struct.IndexScanDescData, ptr %11, i32 0, i32 12
  %13 = load ptr, ptr %12, align 8
  store ptr %13, ptr %6, align 8
  call void @llvm.lifetime.start.p0(i64 8, ptr %7) #8
  store i64 0, ptr %7, align 8
  call void @llvm.lifetime.start.p0(i64 56, ptr %8) #8
  %14 = load ptr, ptr %6, align 8
  %15 = getelementptr inbounds nuw %struct.GISTScanOpaqueData, ptr %14, i32 0, i32 4
  %16 = load i8, ptr %15, align 8, !range !4, !noundef !5
  %17 = trunc i8 %16 to i1
  br i1 %17, label %19, label %18

18:                                               ; preds = %2
  store i64 0, ptr %3, align 8
  store i32 1, ptr %9, align 4
  br label %108

19:                                               ; preds = %2
  br label %20

20:                                               ; preds = %19
  %21 = load ptr, ptr %4, align 8
  %22 = getelementptr inbounds nuw %struct.IndexScanDescData, ptr %21, i32 0, i32 1
  %23 = load ptr, ptr %22, align 8
  %24 = getelementptr inbounds nuw %struct.RelationData, ptr %23, i32 0, i32 68
  %25 = load ptr, ptr %24, align 8
  %26 = icmp ne ptr %25, null
  %27 = zext i1 %26 to i32
  %28 = icmp ne i32 %27, 0
  %29 = zext i1 %28 to i32
  %30 = sext i32 %29 to i64
  %31 = call i64 @llvm.expect.i64(i64 %30, i64 1)
  %32 = icmp ne i64 %31, 0
  br i1 %32, label %33, label %34

33:                                               ; preds = %20
  br i1 true, label %46, label %56

34:                                               ; preds = %20
  %35 = load ptr, ptr %4, align 8
  %36 = getelementptr inbounds nuw %struct.IndexScanDescData, ptr %35, i32 0, i32 1
  %37 = load ptr, ptr %36, align 8
  %38 = getelementptr inbounds nuw %struct.RelationData, ptr %37, i32 0, i32 67
  %39 = load i8, ptr %38, align 4, !range !4, !noundef !5
  %40 = trunc i8 %39 to i1
  br i1 %40, label %41, label %45

41:                                               ; preds = %34
  %42 = load ptr, ptr %4, align 8
  %43 = getelementptr inbounds nuw %struct.IndexScanDescData, ptr %42, i32 0, i32 1
  %44 = load ptr, ptr %43, align 8
  call void @pgstat_assoc_relation(ptr noundef %44)
  br i1 true, label %46, label %56

45:                                               ; preds = %34
  br i1 false, label %46, label %56

46:                                               ; preds = %45, %41, %33
  %47 = load ptr, ptr %4, align 8
  %48 = getelementptr inbounds nuw %struct.IndexScanDescData, ptr %47, i32 0, i32 1
  %49 = load ptr, ptr %48, align 8
  %50 = getelementptr inbounds nuw %struct.RelationData, ptr %49, i32 0, i32 68
  %51 = load ptr, ptr %50, align 8
  %52 = getelementptr inbounds nuw %struct.PgStat_TableStatus, ptr %51, i32 0, i32 3
  %53 = getelementptr inbounds nuw %struct.PgStat_TableCounts, ptr %52, i32 0, i32 0
  %54 = load i64, ptr %53, align 8
  %55 = add i64 %54, 1
  store i64 %55, ptr %53, align 8
  br label %56

56:                                               ; preds = %46, %45, %41, %33
  br label %57

57:                                               ; preds = %56
  br label %58

58:                                               ; preds = %57
  %59 = load ptr, ptr %6, align 8
  %60 = getelementptr inbounds nuw %struct.GISTScanOpaqueData, ptr %59, i32 0, i32 12
  store i16 0, ptr %60, align 8
  %61 = load ptr, ptr %6, align 8
  %62 = getelementptr inbounds nuw %struct.GISTScanOpaqueData, ptr %61, i32 0, i32 13
  store i16 0, ptr %62, align 2
  %63 = load ptr, ptr %4, align 8
  %64 = getelementptr inbounds nuw %struct.IndexScanDescData, ptr %63, i32 0, i32 15
  store ptr null, ptr %64, align 8
  %65 = load ptr, ptr %6, align 8
  %66 = getelementptr inbounds nuw %struct.GISTScanOpaqueData, ptr %65, i32 0, i32 14
  %67 = load ptr, ptr %66, align 8
  %68 = icmp ne ptr %67, null
  br i1 %68, label %69, label %73

69:                                               ; preds = %58
  %70 = load ptr, ptr %6, align 8
  %71 = getelementptr inbounds nuw %struct.GISTScanOpaqueData, ptr %70, i32 0, i32 14
  %72 = load ptr, ptr %71, align 8
  call void @MemoryContextReset(ptr noundef %72)
  br label %73

73:                                               ; preds = %69, %58
  %74 = getelementptr inbounds nuw %struct.GISTSearchItem, ptr %8, i32 0, i32 1
  store i32 0, ptr %74, align 8
  %75 = getelementptr inbounds nuw %struct.GISTSearchItem, ptr %8, i32 0, i32 2
  call void @llvm.memset.p0.i64(ptr align 8 %75, i8 0, i64 8, i1 false)
  %76 = load ptr, ptr %4, align 8
  %77 = load ptr, ptr %5, align 8
  call void @gistScanPage(ptr noundef %76, ptr noundef %8, ptr noundef null, ptr noundef %77, ptr noundef %7)
  br label %78

78:                                               ; preds = %105, %73
  call void @llvm.lifetime.start.p0(i64 8, ptr %10) #8
  %79 = load ptr, ptr %6, align 8
  %80 = call ptr @getNextGISTSearchItem(ptr noundef %79)
  store ptr %80, ptr %10, align 8
  %81 = load ptr, ptr %10, align 8
  %82 = icmp ne ptr %81, null
  br i1 %82, label %84, label %83

83:                                               ; preds = %78
  store i32 4, ptr %9, align 4
  br label %103

84:                                               ; preds = %78
  br label %85

85:                                               ; preds = %84
  %86 = load volatile i32, ptr @InterruptPending, align 4
  %87 = icmp ne i32 %86, 0
  %88 = zext i1 %87 to i32
  %89 = sext i32 %88 to i64
  %90 = call i64 @llvm.expect.i64(i64 %89, i64 0)
  %91 = icmp ne i64 %90, 0
  br i1 %91, label %92, label %93

92:                                               ; preds = %85
  call void @ProcessInterrupts()
  br label %93

93:                                               ; preds = %92, %85
  br label %94

94:                                               ; preds = %93
  br label %95

95:                                               ; preds = %94
  %96 = load ptr, ptr %4, align 8
  %97 = load ptr, ptr %10, align 8
  %98 = load ptr, ptr %10, align 8
  %99 = getelementptr inbounds nuw %struct.GISTSearchItem, ptr %98, i32 0, i32 3
  %100 = getelementptr inbounds [0 x %struct.IndexOrderByDistance], ptr %99, i64 0, i64 0
  %101 = load ptr, ptr %5, align 8
  call void @gistScanPage(ptr noundef %96, ptr noundef %97, ptr noundef %100, ptr noundef %101, ptr noundef %7)
  %102 = load ptr, ptr %10, align 8
  call void @pfree(ptr noundef %102)
  store i32 0, ptr %9, align 4
  br label %103

103:                                              ; preds = %95, %83
  call void @llvm.lifetime.end.p0(i64 8, ptr %10) #8
  %104 = load i32, ptr %9, align 4
  switch i32 %104, label %110 [
    i32 0, label %105
    i32 4, label %106
  ]

105:                                              ; preds = %103
  br label %78

106:                                              ; preds = %103
  %107 = load i64, ptr %7, align 8
  store i64 %107, ptr %3, align 8
  store i32 1, ptr %9, align 4
  br label %108

108:                                              ; preds = %106, %18
  call void @llvm.lifetime.end.p0(i64 56, ptr %8) #8
  call void @llvm.lifetime.end.p0(i64 8, ptr %7) #8
  call void @llvm.lifetime.end.p0(i64 8, ptr %6) #8
  %109 = load i64, ptr %3, align 8
  ret i64 %109

110:                                              ; preds = %103
  unreachable
}