; Function Attrs: nounwind uwtable
define dso_local i64 @gistgetbitmap(ptr noundef captures(none) %0, ptr noundef %1) local_unnamed_addr #0 {
  %3 = alloca i64, align 8
  %4 = alloca %struct.GISTSearchItem, align 8
  %5 = getelementptr inbounds nuw i8, ptr %0, i64 56
  %6 = load ptr, ptr %5, align 8
  call void @llvm.lifetime.start.p0(i64 8, ptr nonnull %3) #8
  store i64 0, ptr %3, align 8
  call void @llvm.lifetime.start.p0(i64 56, ptr nonnull %4) #8
  %7 = getelementptr inbounds nuw i8, ptr %6, i64 32
  %8 = load i8, ptr %7, align 8, !range !4, !noundef !5
  %9 = trunc nuw i8 %8 to i1
  br i1 %9, label %10, label %49

10:                                               ; preds = %2
  %11 = getelementptr inbounds nuw i8, ptr %0, i64 8
  %12 = load ptr, ptr %11, align 8
  %13 = getelementptr inbounds nuw i8, ptr %12, i64 480
  %14 = load ptr, ptr %13, align 8
  %.not = icmp eq ptr %14, null
  br i1 %.not, label %15, label %20, !prof !6

15:                                               ; preds = %10
  %16 = getelementptr inbounds nuw i8, ptr %12, i64 476
  %17 = load i8, ptr %16, align 4, !range !4, !noundef !5
  %18 = trunc nuw i8 %17 to i1
  br i1 %18, label %19, label %25

19:                                               ; preds = %15
  tail call void @pgstat_assoc_relation(ptr noundef nonnull %12) #8
  %.pre = load ptr, ptr %11, align 8
  %.phi.trans.insert = getelementptr inbounds nuw i8, ptr %.pre, i64 480
  %.pre33 = load ptr, ptr %.phi.trans.insert, align 8
  br label %20

20:                                               ; preds = %10, %19
  %21 = phi ptr [ %14, %10 ], [ %.pre33, %19 ]
  %22 = getelementptr inbounds nuw i8, ptr %21, i64 16
  %23 = load i64, ptr %22, align 8
  %24 = add i64 %23, 1
  store i64 %24, ptr %22, align 8
  br label %25

25:                                               ; preds = %15, %20
  %26 = getelementptr inbounds nuw i8, ptr %6, i64 24648
  store i16 0, ptr %26, align 8
  %27 = getelementptr inbounds nuw i8, ptr %6, i64 24650
  store i16 0, ptr %27, align 2
  %28 = getelementptr inbounds nuw i8, ptr %0, i64 80
  store ptr null, ptr %28, align 8
  %29 = getelementptr inbounds nuw i8, ptr %6, i64 24656
  %30 = load ptr, ptr %29, align 8
  %.not24 = icmp eq ptr %30, null
  br i1 %.not24, label %32, label %31

31:                                               ; preds = %25
  tail call void @MemoryContextReset(ptr noundef nonnull %30) #8
  br label %32

32:                                               ; preds = %31, %25
  %33 = getelementptr inbounds nuw i8, ptr %4, i64 24
  store i32 0, ptr %33, align 8
  %34 = getelementptr inbounds nuw i8, ptr %4, i64 32
  store i64 0, ptr %34, align 8
  call fastcc void @gistScanPage(ptr noundef nonnull %0, ptr noundef %4, ptr noundef null, ptr noundef %1, ptr noundef nonnull %3)
  %35 = getelementptr i8, ptr %6, i64 16
  %.val31 = load ptr, ptr %35, align 8
  %36 = getelementptr inbounds nuw i8, ptr %.val31, i64 16
  %37 = load ptr, ptr %36, align 8
  %38 = icmp eq ptr %37, null
  br i1 %38, label %getNextGISTSearchItem.exit.thread, label %getNextGISTSearchItem.exit

getNextGISTSearchItem.exit:                       ; preds = %32, %43
  %.val32 = phi ptr [ %.val, %43 ], [ %.val31, %32 ]
  %39 = tail call ptr @pairingheap_remove_first(ptr noundef nonnull %.val32) #8
  %.not25 = icmp eq ptr %39, null
  br i1 %.not25, label %getNextGISTSearchItem.exit.thread, label %40

40:                                               ; preds = %getNextGISTSearchItem.exit
  %41 = load volatile i32, ptr @InterruptPending, align 4
  %.not26 = icmp eq i32 %41, 0
  br i1 %.not26, label %43, label %42, !prof !7

42:                                               ; preds = %40
  tail call void @ProcessInterrupts() #8
  br label %43

43:                                               ; preds = %40, %42
  %44 = getelementptr inbounds nuw i8, ptr %39, i64 56
  call fastcc void @gistScanPage(ptr noundef nonnull %0, ptr noundef %39, ptr noundef nonnull %44, ptr noundef %1, ptr noundef nonnull %3)
  tail call void @pfree(ptr noundef nonnull %39) #8
  %.val = load ptr, ptr %35, align 8
  %45 = getelementptr inbounds nuw i8, ptr %.val, i64 16
  %46 = load ptr, ptr %45, align 8
  %47 = icmp eq ptr %46, null
  br i1 %47, label %getNextGISTSearchItem.exit.thread, label %getNextGISTSearchItem.exit

getNextGISTSearchItem.exit.thread:                ; preds = %getNextGISTSearchItem.exit, %43, %32
  %48 = load i64, ptr %3, align 8
  br label %49

49:                                               ; preds = %2, %getNextGISTSearchItem.exit.thread
  %.0 = phi i64 [ %48, %getNextGISTSearchItem.exit.thread ], [ 0, %2 ]
  call void @llvm.lifetime.end.p0(i64 56, ptr nonnull %4) #8
  call void @llvm.lifetime.end.p0(i64 8, ptr nonnull %3) #8
  ret i64 %.0
}